; Function Attrs: nounwind uwtable
define internal range(i32 0, 75) i32 @tftp_done(ptr noundef %0, i32 %1, i1 zeroext %2) #0 {
  %4 = getelementptr inbounds nuw i8, ptr %0, i64 24
  %5 = load ptr, ptr %4, align 8, !tbaa !86
  %6 = getelementptr inbounds nuw i8, ptr %5, i64 1088
  %7 = load ptr, ptr %6, align 8, !tbaa !85
  %8 = tail call i32 @Curl_pgrsDone(ptr noundef %0) #13
  %.not = icmp eq i32 %8, 0
  br i1 %.not, label %9, label %14

9:                                                ; preds = %3
  %.not8 = icmp eq ptr %7, null
  br i1 %.not8, label %14, label %10

10:                                               ; preds = %9
  %11 = getelementptr inbounds nuw i8, ptr %7, i64 8
  %12 = load i32, ptr %11, align 8, !tbaa !94
  %13 = tail call fastcc i32 @tftp_translate_code(i32 noundef %12)
  br label %14

14:                                               ; preds = %9, %10, %3
  %.0 = phi i32 [ 42, %3 ], [ %13, %10 ], [ 0, %9 ]
  ret i32 %.0
}